target datalayout = "e-m:e-p270:32:32-p271:32:32-p272:64:64-i64:64-i128:128-f80:128-n8:16:32:64-S128"
target triple = "x86_64-pc-linux-gnu"

@.str.26 = private unnamed_addr constant [28 x i8] c"<buffer:%p>: %s (%zu bytes)\00", align 1
@.str.27 = private unnamed_addr constant [19 x i8] c"%s: %s (%zu bytes)\00", align 1

; Function Attrs: null_pointer_is_valid sspstrong uwtable
define void @ws_log_buffer_full(ptr noundef %0, i32 noundef %1, ptr noundef %2, i64 noundef %3, ptr noundef %4, ptr noundef %5, i64 noundef %6, i64 noundef %7, ptr noundef %8) #1 {
  %10 = alloca ptr, align 8
  %11 = alloca i32, align 4
  %12 = alloca ptr, align 8
  %13 = alloca i64, align 8
  %14 = alloca ptr, align 8
  %15 = alloca ptr, align 8
  %16 = alloca i64, align 8
  %17 = alloca i64, align 8
  %18 = alloca ptr, align 8
  %19 = alloca ptr, align 8
  %20 = alloca i32, align 4
  %21 = alloca i32, align 4
  store ptr %0, ptr %10, align 8
  store i32 %1, ptr %11, align 4
  store ptr %2, ptr %12, align 8
  store i64 %3, ptr %13, align 8
  store ptr %4, ptr %14, align 8
  store ptr %5, ptr %15, align 8
  store i64 %6, ptr %16, align 8
  store i64 %7, ptr %17, align 8
  store ptr %8, ptr %18, align 8
  %22 = load ptr, ptr %10, align 8
  %23 = load i32, ptr %11, align 4
  %24 = call zeroext i1 @ws_log_msg_is_active(ptr noundef %22, i32 noundef %23)
  br i1 %24, label %26, label %25

25:                                               ; preds = %9
  br label %61

26:                                               ; preds = %9
  call void @llvm.lifetime.start.p0(i64 8, ptr %19) #19
  %27 = load ptr, ptr %15, align 8
  %28 = load i64, ptr %16, align 8
  %29 = load i64, ptr %17, align 8
  %30 = call ptr @bytes_to_str_punct_maxlen(ptr noundef null, ptr noundef %27, i64 noundef %28, i8 noundef signext 32, i64 noundef %29)
  store ptr %30, ptr %19, align 8
  call void @llvm.lifetime.start.p0(i64 4, ptr %20) #19
  %31 = load ptr, ptr %18, align 8
  %32 = icmp eq ptr %31, null
  br i1 %32, label %33, label %34

33:                                               ; preds = %26
  store i32 1, ptr %20, align 4
  br label %35

34:                                               ; preds = %26
  store i32 0, ptr %20, align 4
  br label %35

35:                                               ; preds = %34, %33
  %36 = load i32, ptr %20, align 4
  store i32 %36, ptr %21, align 4
  call void @llvm.lifetime.end.p0(i64 4, ptr %20) #19
  %37 = load i32, ptr %21, align 4
  %38 = sext i32 %37 to i64
  %39 = call i64 @llvm.expect.i64(i64 %38, i64 0)
  %40 = icmp ne i64 %39, 0
  br i1 %40, label %41, label %50

41:                                               ; preds = %35
  %42 = load ptr, ptr %10, align 8
  %43 = load i32, ptr %11, align 4
  %44 = load ptr, ptr %12, align 8
  %45 = load i64, ptr %13, align 8
  %46 = load ptr, ptr %14, align 8
  %47 = load ptr, ptr %15, align 8
  %48 = load ptr, ptr %19, align 8
  %49 = load i64, ptr %16, align 8
  call void (ptr, i32, ptr, i64, ptr, ptr, ...) @ws_log_write_always_full(ptr noundef %42, i32 noundef %43, ptr noundef %44, i64 noundef %45, ptr noundef %46, ptr noundef @.str.26, ptr noundef %47, ptr noundef %48, i64 noundef %49)
  br label %59

50:                                               ; preds = %35
  %51 = load ptr, ptr %10, align 8
  %52 = load i32, ptr %11, align 4
  %53 = load ptr, ptr %12, align 8
  %54 = load i64, ptr %13, align 8
  %55 = load ptr, ptr %14, align 8
  %56 = load ptr, ptr %18, align 8
  %57 = load ptr, ptr %19, align 8
  %58 = load i64, ptr %16, align 8
  call void (ptr, i32, ptr, i64, ptr, ptr, ...) @ws_log_write_always_full(ptr noundef %51, i32 noundef %52, ptr noundef %53, i64 noundef %54, ptr noundef %55, ptr noundef @.str.27, ptr noundef %56, ptr noundef %57, i64 noundef %58)
  br label %59

59:                                               ; preds = %50, %41
  %60 = load ptr, ptr %19, align 8
  call void @wmem_free(ptr noundef null, ptr noundef %60)
  call void @llvm.lifetime.end.p0(i64 8, ptr %19) #19
  br label %61

61:                                               ; preds = %59, %25
  ret void
}