; Function Attrs: null_pointer_is_valid sspstrong uwtable
define void @ws_log_buffer_full(ptr noundef %0, i32 noundef %1, ptr noundef %2, i64 noundef %3, ptr noundef %4, ptr noundef %5, i64 noundef %6, i64 noundef %7, ptr noundef %8) local_unnamed_addr #1 {
  %10 = tail call zeroext i1 @ws_log_msg_is_active(ptr noundef %0, i32 noundef %1)
  br i1 %10, label %11, label %16

11:                                               ; preds = %9
  %12 = tail call ptr @bytes_to_str_punct_maxlen(ptr noundef null, ptr noundef %5, i64 noundef %6, i8 noundef signext 32, i64 noundef %7)
  %.not = icmp eq ptr %8, null
  br i1 %.not, label %13, label %14, !prof !14

13:                                               ; preds = %11
  tail call void (ptr, i32, ptr, i64, ptr, ptr, ...) @ws_log_write_always_full(ptr noundef %0, i32 noundef %1, ptr noundef %2, i64 noundef %3, ptr noundef %4, ptr noundef nonnull @.str.26, ptr noundef %5, ptr noundef %12, i64 noundef %6)
  br label %15

14:                                               ; preds = %11
  tail call void (ptr, i32, ptr, i64, ptr, ptr, ...) @ws_log_write_always_full(ptr noundef %0, i32 noundef %1, ptr noundef %2, i64 noundef %3, ptr noundef %4, ptr noundef nonnull @.str.27, ptr noundef nonnull %8, ptr noundef %12, i64 noundef %6)
  br label %15

15:                                               ; preds = %14, %13
  tail call void @wmem_free(ptr noundef null, ptr noundef %12)
  br label %16

16:                                               ; preds = %9, %15
  ret void
}